Certificate:
    Data:
        Version: 3 (0x2)
        Serial Number: 8 (0x8)
        Signature Algorithm: sha512WithRSAEncryption
        Issuer: C=DE, O=Damaschkestr. 11, OU=Arbeitszimmer, CN=Dama11 Lab Intermediary CA
        Validity
            Not Before: Jan  2 16:41:45 2024 GMT
            Not After : Nov  1 23:59:59 2025 GMT
        Subject: C=DE, O=Damaschkestr. 11, OU=Arbeitszimmer, CN=Dama11 Lab Component CA
        Subject Public Key Info:
            Public Key Algorithm: rsaEncryption
                Public-Key: (4096 bit)
                Modulus:
                    00:b3:03:c1:ea:06:29:21:18:26:68:53:34:4e:af:
                    fd:92:f2:f9:1d:31:65:55:b5:4c:26:8d:d7:64:a2:
                    e8:b7:7c:fd:53:6e:77:be:b9:bb:63:0d:35:6d:8d:
                    7e:74:16:fe:f5:36:d4:00:c4:5b:92:54:59:da:7c:
                    c2:20:c6:35:b9:88:b6:79:a8:3e:de:1c:d4:ed:21:
                    4e:c5:0c:ea:b8:8c:5d:3c:94:3d:52:29:c8:f4:f4:
                    01:2f:59:bd:f8:91:51:4b:74:3c:c1:24:0f:03:c1:
                    2a:8b:f2:21:54:4d:14:c2:2f:bd:78:93:77:3d:32:
                    07:3d:af:64:a4:8f:0a:b1:d3:6d:26:ba:92:0b:93:
                    23:7a:b6:97:c6:d8:89:6f:00:cd:0e:bb:03:54:5e:
                    6d:3d:29:3a:e5:92:6c:7d:37:d5:c0:79:68:f0:d0:
                    26:95:7c:45:6f:21:34:52:e2:c7:ba:64:7f:33:b1:
                    91:d5:b8:e8:46:b3:00:cf:9b:eb:51:69:a6:f9:b4:
                    8a:0f:95:ed:a2:ba:d0:97:70:d3:4e:ef:35:99:83:
                    10:a1:31:af:e7:92:10:ba:6b:33:10:37:b1:07:c4:
                    d1:b9:ff:84:ef:31:7a:52:37:55:23:47:8b:2d:ea:
                    97:a9:07:d2:b8:33:9c:f9:da:5a:2e:1d:b2:67:a4:
                    0d:6c:cf:ef:ae:c4:5b:05:8c:94:29:ca:0e:43:56:
                    e2:3e:69:7a:b3:3d:d7:07:25:8d:97:a9:39:20:5d:
                    5a:3a:3f:9e:5e:eb:7f:a8:45:28:e4:80:1b:99:76:
                    47:af:5c:3d:2c:cc:8d:8b:a3:86:35:f4:8a:3e:6a:
                    93:a3:97:9d:94:e1:97:a3:2e:67:56:c8:4e:d2:5d:
                    8b:ea:73:9a:3f:55:ff:df:cd:62:c0:43:4d:a7:f5:
                    a5:51:40:75:6d:97:01:e1:09:f3:0f:35:74:34:23:
                    d0:1b:ff:ff:b0:7d:76:b3:ce:aa:aa:f5:35:d4:be:
                    07:dd:f0:dd:c4:53:7d:39:05:32:79:de:b4:20:5c:
                    41:82:56:15:1a:f7:6f:8c:2c:55:9c:53:9d:16:c9:
                    1e:c1:99:ff:5e:85:31:80:4e:84:8b:22:9d:01:f1:
                    01:7b:dc:30:ca:24:ac:2a:7b:cb:42:57:14:c1:77:
                    28:94:9a:9d:94:42:60:02:f1:23:fd:67:d0:fc:8f:
                    0a:33:17:ac:7f:bf:48:29:7e:8f:86:d0:2c:22:df:
                    29:bc:aa:46:db:aa:4e:03:bb:12:ef:cb:09:1c:60:
                    d1:3c:d3:f5:68:2d:2b:7a:e0:b4:44:62:5b:25:9e:
                    5c:67:a2:cc:15:c2:61:ca:53:84:ce:e4:de:45:6e:
                    4d:9a:c9
                Exponent: 65537 (0x10001)
        X509v3 extensions:
            X509v3 Key Usage: critical
                Certificate Sign, CRL Sign
            X509v3 Basic Constraints: critical
                CA:TRUE, pathlen:0
            X509v3 Subject Key Identifier: 
                D7:68:B6:DC:A5:51:F1:D3:0C:DD:29:CD:40:04:3B:E1:52:D2:DF:3F
            X509v3 Authority Key Identifier: 
                5F:17:9E:B3:3D:7C:34:C0:A1:9B:73:99:DA:3C:34:44:74:57:80:16
            Authority Information Access: 
                CA Issuers - URI:https://elbosso.github.io/x509//Dama11_Intermediary_CA-ca.crt
            X509v3 CRL Distribution Points: 
                Full Name:
                  URI:https://elbosso.github.io/x509//Dama11_Intermediary_CA-ca.crl
    Signature Algorithm: sha512WithRSAEncryption
    Signature Value:
        0e:94:6c:36:27:78:91:ac:28:40:f5:95:7c:91:8f:49:3f:2d:
        65:7d:2f:6e:39:03:f0:ca:78:08:d5:fb:61:07:c4:92:9e:c8:
        ee:98:ae:a1:7f:9f:28:74:0b:cb:4c:55:6f:20:8a:f4:09:dc:
        96:86:76:b4:a9:3b:ff:af:ff:1f:56:75:80:1c:39:1d:df:f0:
        39:4f:d8:ee:33:08:e0:74:30:77:c7:cf:21:7c:85:54:63:99:
        74:d6:23:9e:26:0d:66:06:11:00:4f:28:02:6e:b2:25:99:65:
        3e:73:cc:26:39:7e:0e:7c:44:26:c4:01:dd:99:fd:0c:6e:12:
        48:28:5b:d4:7c:ce:e8:cf:6e:42:64:70:e7:d4:6d:7b:73:e7:
        9f:da:c5:a2:96:c8:c4:40:9c:ae:17:ab:30:90:24:f2:90:86:
        f9:e9:16:8b:aa:17:f9:96:1a:0c:fd:01:c9:01:af:1d:a1:78:
        18:2b:36:6a:5b:2c:10:c5:e2:e5:dc:d9:47:f8:bf:1d:80:d8:
        15:e5:1e:99:e4:22:2e:ad:f5:b1:0f:8b:bd:b0:0b:fb:e3:4a:
        62:7a:63:f1:d7:7b:6c:70:53:07:dc:75:d6:61:5a:7c:35:6d:
        5b:66:b6:5c:f2:60:14:19:6c:2b:2a:20:ba:46:e4:63:ea:8f:
        d9:df:3b:7e:25:28:2b:10:60:b1:73:f0:26:5a:c7:19:54:aa:
        82:e0:35:58:aa:d0:d0:c3:aa:ee:58:c6:f3:62:c8:9f:e3:3d:
        8f:92:9e:26:69:88:ca:85:6a:d7:05:04:cf:3e:76:c7:fc:ff:
        66:42:16:c2:5f:7c:35:52:17:d7:ac:36:6f:08:f8:07:b9:f9:
        35:83:ac:0f:7a:2f:06:a3:02:98:11:62:b9:04:7b:52:d1:b1:
        96:c0:a9:af:c7:be:e1:d6:6b:ab:b3:4a:75:5c:75:21:b9:54:
        9c:0c:8b:c2:fe:77:ed:50:c5:fd:1c:df:02:87:87:df:9d:a3:
        a0:a1:5c:30:2d:dd:4f:22:6d:85:7e:8f:a4:1c:e7:4f:45:96:
        a2:c2:b2:8e:90:43:a4:fb:11:cd:af:9d:e5:2f:99:e5:f0:d4:
        4b:99:dd:32:3c:0c:90:11:ce:e4:63:fa:0d:30:17:aa:69:1c:
        39:47:1c:37:00:52:e3:d7:8d:b9:78:20:3d:52:69:81:c3:9e:
        f1:3b:de:7f:40:d9:f2:f6:45:50:95:9b:14:83:cd:67:be:af:
        81:58:06:b6:17:46:52:03:e3:38:24:97:e3:7a:69:4b:31:14:
        c4:50:2c:d8:c3:4a:d0:bb:ea:9f:c5:cb:c1:ba:c3:7d:0b:7c:
        14:ac:92:b0:99:13:e0:0a
-----BEGIN CERTIFICATE-----
MIIGVzCCBD+gAwIBAgIBCDANBgkqhkiG9w0BAQ0FADBlMQswCQYDVQQGEwJERTEZ
MBcGA1UECgwQRGFtYXNjaGtlc3RyLiAxMTEWMBQGA1UECwwNQXJiZWl0c3ppbW1l
cjEjMCEGA1UEAwwaRGFtYTExIExhYiBJbnRlcm1lZGlhcnkgQ0EwHhcNMjQwMTAy
MTY0MTQ1WhcNMjUxMTAxMjM1OTU5WjBiMQswCQYDVQQGEwJERTEZMBcGA1UECgwQ
RGFtYXNjaGtlc3RyLiAxMTEWMBQGA1UECwwNQXJiZWl0c3ppbW1lcjEgMB4GA1UE
AwwXRGFtYTExIExhYiBDb21wb25lbnQgQ0EwggIiMA0GCSqGSIb3DQEBAQUAA4IC
DwAwggIKAoICAQCzA8HqBikhGCZoUzROr/2S8vkdMWVVtUwmjddkoui3fP1Tbne+
ubtjDTVtjX50Fv71NtQAxFuSVFnafMIgxjW5iLZ5qD7eHNTtIU7FDOq4jF08lD1S
Kcj09AEvWb34kVFLdDzBJA8DwSqL8iFUTRTCL714k3c9Mgc9r2Skjwqx020mupIL
kyN6tpfG2IlvAM0OuwNUXm09KTrlkmx9N9XAeWjw0CaVfEVvITRS4se6ZH8zsZHV
uOhGswDPm+tRaab5tIoPle2iutCXcNNO7zWZgxChMa/nkhC6azMQN7EHxNG5/4Tv
MXpSN1UjR4st6pepB9K4M5z52louHbJnpA1sz++uxFsFjJQpyg5DVuI+aXqzPdcH
JY2XqTkgXVo6P55e63+oRSjkgBuZdkevXD0szI2Lo4Y19Io+apOjl52U4ZejLmdW
yE7SXYvqc5o/Vf/fzWLAQ02n9aVRQHVtlwHhCfMPNXQ0I9Ab//+wfXazzqqq9TXU
vgfd8N3EU305BTJ53rQgXEGCVhUa92+MLFWcU50WyR7Bmf9ehTGAToSLIp0B8QF7
3DDKJKwqe8tCVxTBdyiUmp2UQmAC8SP9Z9D8jwozF6x/v0gpfo+G0Cwi3ym8qkbb
qk4DuxLvywkcYNE80/VoLSt64LREYlslnlxnoswVwmHKU4TO5N5Fbk2ayQIDAQAB
o4IBEzCCAQ8wDgYDVR0PAQH/BAQDAgEGMBIGA1UdEwEB/wQIMAYBAf8CAQAwHQYD
VR0OBBYEFNdottylUfHTDN0pzUAEO+FS0t8/MB8GA1UdIwQYMBaAFF8XnrM9fDTA
oZtzmdo8NER0V4AWMFkGCCsGAQUFBwEBBE0wSzBJBggrBgEFBQcwAoY9aHR0cHM6
Ly9lbGJvc3NvLmdpdGh1Yi5pby94NTA5Ly9EYW1hMTFfSW50ZXJtZWRpYXJ5X0NB
LWNhLmNydDBOBgNVHR8ERzBFMEOgQaA/hj1odHRwczovL2VsYm9zc28uZ2l0aHVi
LmlvL3g1MDkvL0RhbWExMV9JbnRlcm1lZGlhcnlfQ0EtY2EuY3JsMA0GCSqGSIb3
DQEBDQUAA4ICAQAOlGw2J3iRrChA9ZV8kY9JPy1lfS9uOQPwyngI1fthB8SSnsju
mK6hf58odAvLTFVvIIr0CdyWhna0qTv/r/8fVnWAHDkd3/A5T9juMwjgdDB3x88h
fIVUY5l01iOeJg1mBhEATygCbrIlmWU+c8wmOX4OfEQmxAHdmf0MbhJIKFvUfM7o
z25CZHDn1G17c+ef2sWilsjEQJyuF6swkCTykIb56RaLqhf5lhoM/QHJAa8doXgY
KzZqWywQxeLl3NlH+L8dgNgV5R6Z5CIurfWxD4u9sAv740piemPx13tscFMH3HXW
YVp8NW1bZrZc8mAUGWwrKiC6RuRj6o/Z3zt+JSgrEGCxc/AmWscZVKqC4DVYqtDQ
w6ruWMbzYsif4z2Pkp4maYjKhWrXBQTPPnbH/P9mQhbCX3w1UhfXrDZvCPgHufk1
g6wPei8GowKYEWK5BHtS0bGWwKmvx77h1murs0p1XHUhuVScDIvC/nftUMX9HN8C
h4ffnaOgoVwwLd1PIm2Ffo+kHOdPRZaiwrKOkEOk+xHNr53lL5nl8NRLmd0yPAyQ
Ec7kY/oNMBeqaRw5Rxw3AFLj1425eCA9UmmBw57xO95/QNny9kVQlZsUg81nvq+B
WAa2F0ZSA+M4JJfjemlLMRTEUCzYw0rQu+qfxcvBusN9C3wUrJKwmRPgCg==
-----END CERTIFICATE-----
Certificate:
    Data:
        Version: 3 (0x2)
        Serial Number: 2 (0x2)
        Signature Algorithm: sha512WithRSAEncryption
        Issuer: C=DE, O=Damaschkestr. 11, OU=Arbeitszimmer, CN=Dama11 Lab Root CA
        Validity
            Not Before: Oct 13 15:13:09 2019 GMT
            Not After : Dec 31 23:59:59 2025 GMT
        Subject: C=DE, O=Damaschkestr. 11, OU=Arbeitszimmer, CN=Dama11 Lab Intermediary CA
        Subject Public Key Info:
            Public Key Algorithm: rsaEncryption
                RSA Public-Key: (4096 bit)
                Modulus:
                    00:a2:4d:08:f0:15:50:96:6f:9b:c8:b2:b7:3f:3f:
                    37:d4:42:33:70:bb:7e:3c:02:be:79:c1:96:b0:a6:
                    67:37:ae:9d:98:26:46:96:13:e7:bf:21:1f:ce:eb:
                    62:21:d8:7b:60:88:4d:be:61:d9:d4:92:9e:9b:8f:
                    28:ce:52:3f:5e:37:41:fd:26:a9:a0:f2:22:5f:95:
                    af:00:78:51:b1:8d:e5:b7:af:63:2d:0f:06:af:36:
                    ed:f5:76:0c:b3:a4:f1:20:7b:37:52:84:b9:93:ba:
                    0c:14:b6:ad:a4:22:5a:fb:b4:ac:25:3d:a5:ad:d4:
                    e9:63:b3:a9:43:32:3b:2e:b7:9e:85:45:77:69:1f:
                    fd:01:8b:46:07:68:5f:83:c2:7a:88:e4:19:32:56:
                    3b:eb:56:65:8a:f6:71:f2:c8:58:9c:6f:d8:2e:f5:
                    bf:0a:f6:55:e6:5d:25:bf:61:6e:93:29:c4:43:7d:
                    97:09:3f:01:93:e0:49:9c:1d:fd:4b:15:79:58:eb:
                    a6:cc:3b:c3:61:b5:da:3a:21:38:3d:18:db:18:a9:
                    14:52:c1:a9:6f:59:b3:e4:97:fa:d6:de:de:1a:80:
                    f6:7a:1b:af:0e:48:f5:bb:54:b9:e5:93:55:33:18:
                    50:7e:2a:1b:d0:b1:13:2d:ad:e4:02:40:53:04:b4:
                    a9:37:69:4d:da:35:c6:54:e0:46:c8:db:c6:17:a6:
                    87:78:88:54:e9:ed:ef:04:c8:35:40:d5:04:3c:51:
                    cc:9c:ef:de:3a:d0:3b:b6:d6:6a:83:86:e6:28:af:
                    e0:e4:b0:db:68:54:1b:3a:b7:24:b7:56:a9:ad:80:
                    18:3a:ae:8d:4b:b1:a8:01:b7:df:b8:2f:48:e2:c3:
                    f6:60:69:90:eb:08:69:bd:6e:5b:7b:6d:5b:77:0f:
                    a7:51:40:e9:c7:39:47:ec:54:73:f5:78:ab:9e:43:
                    5d:15:9d:9c:9d:1b:07:94:5a:d1:ad:b1:5e:02:b0:
                    87:02:c8:93:02:b8:2e:07:31:75:ae:07:60:a8:25:
                    02:bd:fe:8c:42:4d:fc:d2:a4:f6:bf:c1:38:63:c2:
                    71:34:0d:bc:21:3c:c6:a7:4a:dc:36:56:f0:54:97:
                    a7:f8:8b:a0:b5:84:e9:61:0d:1c:aa:b9:a3:51:2f:
                    43:f2:7a:2e:09:25:f7:59:26:8a:92:32:df:46:f2:
                    69:ce:33:c5:b9:43:ad:0b:93:ff:d4:17:f5:04:90:
                    53:06:5d:91:12:76:18:0f:b3:9b:62:57:43:6b:ce:
                    58:a9:2a:73:13:5a:b8:10:6f:30:c2:da:83:b6:2b:
                    d2:3f:a3:59:65:60:fd:6e:bd:32:15:0e:2e:49:64:
                    da:8f:6d
                Exponent: 65537 (0x10001)
        X509v3 extensions:
            X509v3 Key Usage: critical
                Certificate Sign, CRL Sign
            X509v3 Basic Constraints: critical
                CA:TRUE
            X509v3 Subject Key Identifier: 
                5F:17:9E:B3:3D:7C:34:C0:A1:9B:73:99:DA:3C:34:44:74:57:80:16
            X509v3 Authority Key Identifier: 
                keyid:01:B2:2D:56:3C:87:7F:A8:5F:61:BC:58:01:BF:1E:FD:4A:CA:CA:8D

            Authority Information Access: 
                CA Issuers - URI:https://elbosso.github.io/x509//Dama11_Root_CA-ca.crt

            X509v3 CRL Distribution Points: 

                Full Name:
                  URI:https://elbosso.github.io/x509//Dama11_Root_CA-ca.crl

    Signature Algorithm: sha512WithRSAEncryption
         06:18:fc:7d:af:3a:12:f3:10:56:ea:d4:60:16:3a:1c:b2:19:
         37:df:84:ba:c8:3c:cd:e7:56:56:b0:a8:12:17:65:48:2f:0a:
         3f:36:5b:c6:25:84:5f:13:78:8d:eb:1b:2c:56:52:15:09:1d:
         ff:34:d5:36:e7:b8:ae:71:ee:b6:04:32:77:f9:52:3c:15:3d:
         c2:a0:c3:f7:13:41:60:fa:1e:2f:8a:2f:ab:32:e3:45:c5:a7:
         59:f4:1f:7a:e7:78:36:c8:ce:41:fe:fb:71:d7:0d:0e:25:09:
         70:62:9e:57:48:10:a0:4a:25:08:7c:55:c2:a2:5d:20:af:a7:
         ea:8f:f8:af:22:8e:17:e6:50:0c:2f:d8:f1:6a:d8:ec:4a:8c:
         56:99:9b:d1:b1:7b:eb:dd:15:fc:21:06:54:78:ce:08:b8:b3:
         30:cd:13:74:e8:01:65:73:1e:0f:37:b1:49:64:06:a3:c4:45:
         b4:fa:ab:a9:59:45:45:56:94:fb:09:92:b9:3a:e8:d5:ed:b5:
         86:48:9f:23:9d:a7:5e:29:53:ea:3e:01:3d:cc:e9:fa:54:17:
         d7:2f:86:f8:c3:4d:8b:60:d0:a6:8b:1b:4d:35:14:0d:71:99:
         dd:40:67:4f:0a:6c:40:e4:f7:3d:3d:40:5a:6a:53:ea:c9:9b:
         06:9f:b9:42:54:3a:61:b1:db:3e:52:cb:58:3f:2b:ec:9b:66:
         32:4f:72:4a:59:d8:2a:5c:fb:25:5b:63:b0:33:5b:0d:05:35:
         23:1b:e7:3a:af:1f:8e:a9:9a:b8:87:01:d0:46:f9:ca:b0:ed:
         c0:7a:7c:52:d5:03:5d:e0:cb:9d:6e:f6:f6:57:c3:34:9f:50:
         c1:4b:ce:b2:a5:da:95:a6:5e:3d:96:09:ba:6e:ac:64:5f:eb:
         a1:5f:e1:4d:94:6a:28:13:30:22:90:f1:a2:d5:45:b5:08:43:
         89:03:c3:8d:1e:60:9e:ea:e7:d5:6a:a9:b9:c8:ff:31:2a:e5:
         a6:6e:b2:6a:41:f6:d6:70:73:aa:4a:8d:53:74:72:8c:be:a5:
         6a:b9:77:3c:0e:53:13:d9:8b:a6:2b:75:cd:c2:5d:39:16:be:
         f1:ec:96:80:54:44:18:03:d7:5c:ff:2f:81:49:6e:f8:8a:54:
         97:32:a0:82:6b:32:52:8a:25:37:71:5e:ad:97:ac:d1:d8:34:
         18:01:86:b0:ee:5b:68:d9:6e:2d:ea:3a:a9:d4:2d:bd:0d:2b:
         bb:52:74:8e:fd:15:aa:18:63:ff:5e:66:94:23:8f:a6:05:76:
         fc:ad:64:25:18:93:4f:79:9b:ab:ff:a5:93:ac:e2:bb:67:d9:
         7b:a9:3f:70:24:ac:92:bf
-----BEGIN CERTIFICATE-----
MIIGPTCCBCWgAwIBAgIBAjANBgkqhkiG9w0BAQ0FADBdMQswCQYDVQQGEwJERTEZ
MBcGA1UECgwQRGFtYXNjaGtlc3RyLiAxMTEWMBQGA1UECwwNQXJiZWl0c3ppbW1l
cjEbMBkGA1UEAwwSRGFtYTExIExhYiBSb290IENBMB4XDTE5MTAxMzE1MTMwOVoX
DTI1MTIzMTIzNTk1OVowZTELMAkGA1UEBhMCREUxGTAXBgNVBAoMEERhbWFzY2hr
ZXN0ci4gMTExFjAUBgNVBAsMDUFyYmVpdHN6aW1tZXIxIzAhBgNVBAMMGkRhbWEx
MSBMYWIgSW50ZXJtZWRpYXJ5IENBMIICIjANBgkqhkiG9w0BAQEFAAOCAg8AMIIC
CgKCAgEAok0I8BVQlm+byLK3Pz831EIzcLt+PAK+ecGWsKZnN66dmCZGlhPnvyEf
zutiIdh7YIhNvmHZ1JKem48ozlI/XjdB/SapoPIiX5WvAHhRsY3lt69jLQ8Grzbt
9XYMs6TxIHs3UoS5k7oMFLatpCJa+7SsJT2lrdTpY7OpQzI7LreehUV3aR/9AYtG
B2hfg8J6iOQZMlY761ZlivZx8shYnG/YLvW/CvZV5l0lv2FukynEQ32XCT8Bk+BJ
nB39SxV5WOumzDvDYbXaOiE4PRjbGKkUUsGpb1mz5Jf61t7eGoD2ehuvDkj1u1S5
5ZNVMxhQfiob0LETLa3kAkBTBLSpN2lN2jXGVOBGyNvGF6aHeIhU6e3vBMg1QNUE
PFHMnO/eOtA7ttZqg4bmKK/g5LDbaFQbOrckt1aprYAYOq6NS7GoAbffuC9I4sP2
YGmQ6whpvW5be21bdw+nUUDpxzlH7FRz9XirnkNdFZ2cnRsHlFrRrbFeArCHAsiT
ArguBzF1rgdgqCUCvf6MQk380qT2v8E4Y8JxNA28ITzGp0rcNlbwVJen+IugtYTp
YQ0cqrmjUS9D8nouCSX3WSaKkjLfRvJpzjPFuUOtC5P/1Bf1BJBTBl2REnYYD7Ob
YldDa85YqSpzE1q4EG8wwtqDtivSP6NZZWD9br0yFQ4uSWTaj20CAwEAAaOB/zCB
/DAOBgNVHQ8BAf8EBAMCAQYwDwYDVR0TAQH/BAUwAwEB/zAdBgNVHQ4EFgQUXxee
sz18NMChm3OZ2jw0RHRXgBYwHwYDVR0jBBgwFoAUAbItVjyHf6hfYbxYAb8e/UrK
yo0wUQYIKwYBBQUHAQEERTBDMEEGCCsGAQUFBzAChjVodHRwczovL2VsYm9zc28u
Z2l0aHViLmlvL3g1MDkvL0RhbWExMV9Sb290X0NBLWNhLmNydDBGBgNVHR8EPzA9
MDugOaA3hjVodHRwczovL2VsYm9zc28uZ2l0aHViLmlvL3g1MDkvL0RhbWExMV9S
b290X0NBLWNhLmNybDANBgkqhkiG9w0BAQ0FAAOCAgEABhj8fa86EvMQVurUYBY6
HLIZN9+Eusg8zedWVrCoEhdlSC8KPzZbxiWEXxN4jesbLFZSFQkd/zTVNue4rnHu
tgQyd/lSPBU9wqDD9xNBYPoeL4ovqzLjRcWnWfQfeud4NsjOQf77cdcNDiUJcGKe
V0gQoEolCHxVwqJdIK+n6o/4ryKOF+ZQDC/Y8WrY7EqMVpmb0bF7690V/CEGVHjO
CLizMM0TdOgBZXMeDzexSWQGo8RFtPqrqVlFRVaU+wmSuTro1e21hkifI52nXilT
6j4BPczp+lQX1y+G+MNNi2DQposbTTUUDXGZ3UBnTwpsQOT3PT1AWmpT6smbBp+5
QlQ6YbHbPlLLWD8r7JtmMk9ySlnYKlz7JVtjsDNbDQU1IxvnOq8fjqmauIcB0Eb5
yrDtwHp8UtUDXeDLnW729lfDNJ9QwUvOsqXalaZePZYJum6sZF/roV/hTZRqKBMw
IpDxotVFtQhDiQPDjR5gnurn1Wqpucj/MSrlpm6yakH21nBzqkqNU3RyjL6larl3
PA5TE9mLpit1zcJdORa+8eyWgFREGAPXXP8vgUlu+IpUlzKggmsyUoolN3FerZes
0dg0GAGGsO5baNluLeo6qdQtvQ0ru1J0jv0Vqhhj/15mlCOPpgV2/K1kJRiTT3mb
q/+lk6ziu2fZe6k/cCSskr8=
-----END CERTIFICATE-----
Certificate:
    Data:
        Version: 3 (0x2)
        Serial Number: 1 (0x1)
        Signature Algorithm: sha512WithRSAEncryption
        Issuer: C=DE, O=Damaschkestr. 11, OU=Arbeitszimmer, CN=Dama11 Lab Root CA
        Validity
            Not Before: Oct 13 15:06:45 2019 GMT
            Not After : Dec 31 23:59:59 2030 GMT
        Subject: C=DE, O=Damaschkestr. 11, OU=Arbeitszimmer, CN=Dama11 Lab Root CA
        Subject Public Key Info:
            Public Key Algorithm: rsaEncryption
                RSA Public-Key: (4096 bit)
                Modulus:
                    00:d6:a6:56:d0:a3:79:02:5e:ea:c3:eb:12:43:1c:
                    b5:bc:7a:2b:49:a1:5b:0d:f9:cb:34:be:7b:df:68:
                    9e:6d:5b:4b:2b:b9:ab:80:a3:58:da:e5:28:8f:04:
                    1a:0c:55:54:f0:3a:05:e5:ef:66:da:12:9a:68:1b:
                    06:f8:be:3c:01:cf:a5:c4:a8:91:05:db:93:62:5c:
                    b0:91:df:aa:f6:6b:80:ae:8e:41:ee:89:7b:63:43:
                    b4:52:94:30:d1:50:5a:00:c6:5c:3d:f2:1f:47:19:
                    e7:6a:4d:73:bc:66:2e:d6:f1:72:3f:5c:6e:d5:7e:
                    ec:42:6a:00:1f:0b:a2:ef:0c:84:d8:c6:16:6b:ce:
                    81:04:05:44:63:f7:3d:b5:f9:f3:f5:fc:64:7c:5d:
                    a7:a3:0f:0c:a2:df:00:88:2e:08:9d:3d:4e:87:86:
                    1f:c7:76:6d:49:6d:ea:82:fc:ab:fa:29:44:77:c1:
                    6b:3a:0c:d3:67:dd:10:36:b6:8e:26:be:cd:24:59:
                    00:21:a7:b7:e2:6f:f3:a4:8b:62:d4:b0:b7:69:4d:
                    16:2d:e6:31:98:c7:4d:63:fa:c1:60:6f:70:73:4d:
                    4f:61:39:e6:d9:1b:4d:a5:c6:d5:7f:e4:b2:a5:89:
                    3d:5b:a9:6f:e2:c9:97:83:d3:22:0e:5f:3f:ec:5b:
                    d3:bc:cf:0a:39:e8:5b:6e:c4:08:41:54:41:c6:8d:
                    c9:09:cb:f0:f5:24:0c:91:f3:a6:98:d8:2a:cb:b3:
                    d3:5e:9b:40:f8:0e:b2:51:0a:95:e7:de:e5:4c:ba:
                    a0:88:dd:81:f2:d2:66:30:81:19:7e:9c:7d:6c:d0:
                    04:78:a1:49:63:57:12:1a:c6:29:b6:7c:c6:bf:bc:
                    18:45:63:ab:f9:77:7e:87:a9:76:b0:37:ec:ae:45:
                    71:4b:61:13:18:d0:d4:14:39:d6:b3:f0:d4:74:8e:
                    c8:7f:cb:d1:03:dc:fa:64:5b:2c:9f:80:e0:d5:2b:
                    fd:ef:c2:31:54:20:bc:9a:d0:14:41:3a:2d:30:dc:
                    ce:75:fc:eb:7f:92:ef:1c:6c:bc:2c:2d:c9:0e:e4:
                    5b:54:72:cb:0a:6b:bf:d4:ab:4d:90:ab:dc:1f:a0:
                    53:d1:2a:c7:91:69:e2:e2:73:87:04:f2:1f:b2:36:
                    a9:b0:e9:4d:62:16:11:5f:ef:5a:8d:d9:38:dc:3d:
                    bb:c0:0f:eb:50:f8:d3:f7:36:07:eb:c5:e4:5f:d4:
                    4a:22:96:87:94:a6:86:1e:62:57:8e:89:f3:30:79:
                    40:25:d7:1e:ed:40:11:67:65:d9:b8:98:ba:44:0d:
                    77:d2:c9:e3:37:68:a7:2e:5f:31:0e:60:90:1f:85:
                    ea:e9:91
                Exponent: 65537 (0x10001)
        X509v3 extensions:
            X509v3 Key Usage: critical
                Certificate Sign, CRL Sign
            X509v3 Basic Constraints: critical
                CA:TRUE
            X509v3 Subject Key Identifier: 
                01:B2:2D:56:3C:87:7F:A8:5F:61:BC:58:01:BF:1E:FD:4A:CA:CA:8D
            X509v3 Authority Key Identifier: 
                keyid:01:B2:2D:56:3C:87:7F:A8:5F:61:BC:58:01:BF:1E:FD:4A:CA:CA:8D

    Signature Algorithm: sha512WithRSAEncryption
         41:75:85:d7:1a:57:30:b4:72:8b:ed:71:c3:f3:cb:90:a2:c9:
         06:05:53:e7:fe:8d:2e:e6:41:64:32:8f:1d:41:01:81:b2:0e:
         9c:a3:d7:9e:70:68:48:52:06:b5:38:a4:8e:60:1e:d8:da:90:
         44:02:c0:84:05:38:21:17:77:49:98:1f:42:92:34:94:78:3f:
         85:30:81:7e:98:af:1d:f5:fc:b5:75:ce:05:46:8f:5c:d7:08:
         f7:1e:b4:51:77:14:2f:74:ef:42:46:d2:cb:c2:8e:51:f3:bb:
         07:e5:d4:26:b1:6b:b2:9a:33:b0:2a:5c:f0:be:24:1e:c4:8f:
         77:e7:71:95:3f:90:36:d6:16:01:c2:31:ce:53:97:15:e6:7c:
         bc:6d:4c:50:10:56:10:70:80:26:93:f9:69:d3:f2:46:18:f6:
         2d:19:1f:b2:cf:60:8e:64:30:67:f2:66:11:11:7b:03:a6:73:
         5b:54:7a:65:7c:4c:12:c9:bc:e1:5d:fc:80:d2:0e:46:10:62:
         8e:5d:dc:c5:72:a5:4c:f8:83:a7:92:d9:81:c2:d6:03:bf:d5:
         ea:31:d7:16:de:a1:d2:59:b9:30:75:0f:e5:42:ff:fe:94:1f:
         e1:4f:c8:17:85:eb:23:92:cb:6f:59:78:dd:eb:31:6e:c2:03:
         cf:e0:54:6f:11:a0:bb:65:ad:c7:df:b4:4d:30:a8:6a:ff:8e:
         84:a1:4e:4a:76:ad:34:8e:03:0a:b3:48:2d:d3:e6:f7:76:01:
         0c:b6:98:19:52:9d:d2:62:b3:96:f0:4d:5d:21:e6:53:54:bc:
         79:68:de:c2:a6:06:5b:26:c7:94:2a:36:91:7f:11:a2:ef:2b:
         b1:3d:0a:55:66:24:6e:d7:6b:68:05:a7:e6:ce:11:e6:cf:c0:
         95:29:cb:43:e5:1e:61:df:48:f6:63:52:fa:28:2c:4f:96:04:
         bb:cc:5f:2b:c2:bf:8c:fd:94:97:96:51:73:7f:96:b6:73:c6:
         b2:3c:32:6c:25:f4:12:5a:cf:6a:70:29:01:f8:4b:b0:71:53:
         48:ce:68:ca:d7:70:58:5e:90:7c:29:d3:b9:25:8d:c2:ef:87:
         20:d4:a2:28:c8:70:b1:dd:10:a9:51:8f:39:0c:e9:a6:91:18:
         dc:51:87:22:72:9c:f2:36:b5:ee:ee:2e:99:59:68:96:9f:ab:
         d7:5d:34:3b:c3:35:8f:86:f2:80:89:c2:f4:84:b4:99:a5:84:
         e8:40:f5:83:cf:2c:86:a5:43:86:b8:fe:57:fd:69:e3:f0:70:
         de:94:7f:b1:c4:8b:76:d5:7d:f4:47:ed:8a:f8:99:b5:ff:83:
         d9:7b:a4:38:6a:46:98:9c
-----BEGIN CERTIFICATE-----
MIIFmDCCA4CgAwIBAgIBATANBgkqhkiG9w0BAQ0FADBdMQswCQYDVQQGEwJERTEZ
MBcGA1UECgwQRGFtYXNjaGtlc3RyLiAxMTEWMBQGA1UECwwNQXJiZWl0c3ppbW1l
cjEbMBkGA1UEAwwSRGFtYTExIExhYiBSb290IENBMB4XDTE5MTAxMzE1MDY0NVoX
DTMwMTIzMTIzNTk1OVowXTELMAkGA1UEBhMCREUxGTAXBgNVBAoMEERhbWFzY2hr
ZXN0ci4gMTExFjAUBgNVBAsMDUFyYmVpdHN6aW1tZXIxGzAZBgNVBAMMEkRhbWEx
MSBMYWIgUm9vdCBDQTCCAiIwDQYJKoZIhvcNAQEBBQADggIPADCCAgoCggIBANam
VtCjeQJe6sPrEkMctbx6K0mhWw35yzS+e99onm1bSyu5q4CjWNrlKI8EGgxVVPA6
BeXvZtoSmmgbBvi+PAHPpcSokQXbk2JcsJHfqvZrgK6OQe6Je2NDtFKUMNFQWgDG
XD3yH0cZ52pNc7xmLtbxcj9cbtV+7EJqAB8Lou8MhNjGFmvOgQQFRGP3PbX58/X8
ZHxdp6MPDKLfAIguCJ09ToeGH8d2bUlt6oL8q/opRHfBazoM02fdEDa2jia+zSRZ
ACGnt+Jv86SLYtSwt2lNFi3mMZjHTWP6wWBvcHNNT2E55tkbTaXG1X/ksqWJPVup
b+LJl4PTIg5fP+xb07zPCjnoW27ECEFUQcaNyQnL8PUkDJHzppjYKsuz016bQPgO
slEKlefe5Uy6oIjdgfLSZjCBGX6cfWzQBHihSWNXEhrGKbZ8xr+8GEVjq/l3foep
drA37K5FcUthExjQ1BQ51rPw1HSOyH/L0QPc+mRbLJ+A4NUr/e/CMVQgvJrQFEE6
LTDcznX863+S7xxsvCwtyQ7kW1Ryywprv9SrTZCr3B+gU9Eqx5Fp4uJzhwTyH7I2
qbDpTWIWEV/vWo3ZONw9u8AP61D40/c2B+vF5F/USiKWh5Smhh5iV46J8zB5QCXX
Hu1AEWdl2biYukQNd9LJ4zdopy5fMQ5gkB+F6umRAgMBAAGjYzBhMA4GA1UdDwEB
/wQEAwIBBjAPBgNVHRMBAf8EBTADAQH/MB0GA1UdDgQWBBQBsi1WPId/qF9hvFgB
vx79SsrKjTAfBgNVHSMEGDAWgBQBsi1WPId/qF9hvFgBvx79SsrKjTANBgkqhkiG
9w0BAQ0FAAOCAgEAQXWF1xpXMLRyi+1xw/PLkKLJBgVT5/6NLuZBZDKPHUEBgbIO
nKPXnnBoSFIGtTikjmAe2NqQRALAhAU4IRd3SZgfQpI0lHg/hTCBfpivHfX8tXXO
BUaPXNcI9x60UXcUL3TvQkbSy8KOUfO7B+XUJrFrspozsCpc8L4kHsSPd+dxlT+Q
NtYWAcIxzlOXFeZ8vG1MUBBWEHCAJpP5adPyRhj2LRkfss9gjmQwZ/JmERF7A6Zz
W1R6ZXxMEsm84V38gNIORhBijl3cxXKlTPiDp5LZgcLWA7/V6jHXFt6h0lm5MHUP
5UL//pQf4U/IF4XrI5LLb1l43esxbsIDz+BUbxGgu2Wtx9+0TTCoav+OhKFOSnat
NI4DCrNILdPm93YBDLaYGVKd0mKzlvBNXSHmU1S8eWjewqYGWybHlCo2kX8Rou8r
sT0KVWYkbtdraAWn5s4R5s/AlSnLQ+UeYd9I9mNS+igsT5YEu8xfK8K/jP2Ul5ZR
c3+WtnPGsjwybCX0ElrPanApAfhLsHFTSM5oytdwWF6QfCnTuSWNwu+HINSiKMhw
sd0QqVGPOQzpppEY3FGHInKc8ja17u4umVlolp+r1100O8M1j4bygInC9IS0maWE
6ED1g88shqVDhrj+V/1p4/Bw3pR/scSLdtV99EftiviZtf+D2XukOGpGmJw=
-----END CERTIFICATE-----
